; Function Attrs: mustprogress uwtable
define void @proj_assign_context(ptr noundef %0, ptr noundef %1) local_unnamed_addr #0 {
  %3 = icmp eq ptr %0, null
  br i1 %3, label %.loopexit, label %4

4:                                                ; preds = %2
  store ptr %1, ptr %0, align 8
  %5 = getelementptr inbounds i8, ptr %0, i64 160
  %6 = load ptr, ptr %5, align 8
  %.not = icmp eq ptr %6, null
  br i1 %.not, label %8, label %7

7:                                                ; preds = %4
  tail call void %6(ptr noundef nonnull %0, ptr noundef %1)
  br label %8

8:                                                ; preds = %7, %4
  %9 = getelementptr inbounds i8, ptr %0, i64 816
  %10 = load ptr, ptr %9, align 8
  %11 = getelementptr inbounds i8, ptr %0, i64 824
  %12 = load ptr, ptr %11, align 8
  %.not1617 = icmp eq ptr %10, %12
  br i1 %.not1617, label %.loopexit, label %.lr.ph

.lr.ph:                                           ; preds = %8, %.lr.ph
  %.sroa.013.018 = phi ptr [ %15, %.lr.ph ], [ %10, %8 ]
  %13 = getelementptr inbounds i8, ptr %.sroa.013.018, i64 72
  %14 = load ptr, ptr %13, align 8
  tail call void @proj_assign_context(ptr noundef %14, ptr noundef %1)
  %15 = getelementptr inbounds i8, ptr %.sroa.013.018, i64 192
  %.not16 = icmp eq ptr %15, %12
  br i1 %.not16, label %.loopexit, label %.lr.ph

.loopexit:                                        ; preds = %.lr.ph, %8, %2
  ret void
}